; Function Attrs: mustprogress nofree norecurse nosync nounwind willreturn memory(write, argmem: readwrite, inaccessiblemem: none) uwtable
define hidden void @BN_clear(ptr noundef captures(none) initializes((8, 12), (16, 20)) %0) local_unnamed_addr #8 {
  %2 = load ptr, ptr %0, align 8, !tbaa !13
  %.not = icmp eq ptr %2, null
  br i1 %.not, label %8, label %3

3:                                                ; preds = %1
  %4 = getelementptr inbounds nuw i8, ptr %0, i64 12
  %5 = load i32, ptr %4, align 4, !tbaa !14
  %6 = sext i32 %5 to i64
  %7 = shl nsw i64 %6, 3
  tail call void @llvm.memset.p0.i64(ptr nonnull align 8 %2, i8 0, i64 %7, i1 false)
  br label %8

8:                                                ; preds = %3, %1
  %9 = getelementptr inbounds nuw i8, ptr %0, i64 8
  store i32 0, ptr %9, align 8, !tbaa !15
  %10 = getelementptr inbounds nuw i8, ptr %0, i64 16
  store i32 0, ptr %10, align 8, !tbaa !16
  ret void
}